(lp0
I-1
aI0
aI1
aI0
aI1
aI0
aI1
aI0
aI-1
aI0
aI-1
aI0
aI-1
aI-2
aI-3
aI-2
aI-3
aI-2
aI-3
aI-2
aI-3
aI-4
aI-3
aI-2
aI-1
aI-2
aI-1
aI-2
aI-3
aI-2
aI-3
aI-4
aI-3
aI-4
aI-3
aI-4
aI-5
aI-4
aI-3
aI-4
aI-3
aI-2
aI8
aI9
aI8
aI9
aI8
aI9
aI10
aI9
aI8
aI9
aI8
aI7
aI8
aI7
aI8
aI7
aI8
aI9
aI8
aI9
aI8
aI9
aI10
aI11
aI10
aI20
aI19
aI20
aI21
aI22
aI23
aI22
aI32
aI33
aI32
aI33
aI32
aI33
aI32
aI33
aI32
aI33
aI32
aI33
aI32
aI33
aI32
aI31
aI32
aI31
aI30
aI31
aI30
aI40
aI39
aI38
aI37
aI38
aI37
aI36
aI37
aI36
aI46
aI45
aI44
aI45
aI46
aI45
aI44
aI43
aI44
aI43
aI44
aI43
aI44
aI43
aI44
aI43
aI42
a.