(lp0
I-1
aI-2
aI-1
aI-2
aI-3
aI-2
aI-1
aI-2
aI-1
aI-2
aI-3
aI-2
aI-3
aI-4
aI6
aI7
aI6
aI5
aI6
aI7
aI6
aI5
aI6
aI5
aI4
aI5
aI4
aI3
aI4
aI3
aI2
aI3
aI4
aI3
aI4
aI5
aI6
aI5
aI4
aI5
aI4
aI3
aI2
aI3
aI2
aI1
aI2
aI1
aI2
aI1
aI2
aI3
aI2
aI1
aI2
aI1
aI0
aI1
aI0
aI-1
aI0
aI10
aI11
aI10
aI9
aI10
aI9
aI10
aI11
aI10
aI9
aI10
aI20
aI21
aI20
aI19
aI20
aI19
aI20
aI21
aI20
aI21
aI20
aI21
aI22
aI32
aI31
aI30
aI31
aI30
aI31
aI32
aI31
aI30
aI31
aI32
aI31
aI30
aI31
aI30
aI29
aI30
aI29
aI30
aI31
aI32
aI31
aI30
aI31
aI30
aI29
aI30
aI40
aI41
aI40
aI41
aI40
aI39
aI40
aI39
aI38
aI39
aI40
aI39
aI38
aI39
aI40
aI39
aI40
aI41
aI40
aI39
aI38
aI39
aI38
aI37
aI38
aI39
aI38
aI39
aI38
aI37
aI38
aI37
aI36
a.