(lp0
I1
aI0
aI-1
aI0
aI-1
aI0
aI1
aI0
aI1
aI2
aI1
aI2
aI1
aI2
aI3
aI2
aI3
aI4
aI3
aI4
aI3
aI2
aI3
aI2
aI3
aI2
aI1
aI2
aI12
aI13
aI12
aI11
aI10
aI11
aI10
aI11
aI12
aI11
aI10
aI11
aI10
aI11
aI12
aI11
aI10
aI11
aI12
aI11
aI12
aI11
aI12
aI22
aI21
aI22
aI21
aI22
aI21
aI22
aI21
aI20
aI21
aI20
aI21
aI20
aI19
aI18
aI17
aI18
aI17
aI18
aI19
aI18
aI17
aI18
aI28
aI29
aI28
aI27
aI28
aI27
aI28
aI38
aI39
aI38
aI39
aI38
aI37
aI38
aI37
aI38
aI37
aI38
aI39
aI38
aI37
aI38
aI37
aI38
aI37
aI36
aI37
aI36
aI46
aI45
aI46
aI45
aI44
aI43
aI42
aI43
aI44
aI43
aI42
aI41
aI40
aI41
aI42
aI41
aI42
a.