(lp0
I1
aI2
aI1
aI0
aI1
aI0
aI-1
aI0
aI-1
aI0
aI-1
aI0
aI1
aI0
aI1
aI0
aI1
aI2
aI1
aI0
aI1
aI0
aI-1
aI0
aI1
aI2
aI1
aI2
aI1
aI0
aI-1
aI0
aI1
aI0
aI1
aI0
aI-1
aI0
aI1
aI0
aI1
aI0
aI-1
aI-2
aI-3
aI-2
aI-3
aI-2
aI-1
aI0
aI-1
aI0
aI-1
aI-2
aI-1
aI0
aI1
aI2
aI12
aI11
aI12
aI11
aI12
aI11
aI12
aI11
aI12
aI11
aI10
aI9
aI10
aI11
aI10
aI11
aI12
aI11
aI12
aI11
aI12
aI13
aI12
aI11
aI12
aI11
aI10
aI9
aI10
aI11
aI10
aI11
aI10
aI11
aI10
aI9
aI10
aI11
aI10
aI9
aI10
aI11
aI10
aI20
aI21
aI20
aI21
aI22
aI21
aI20
aI21
aI22
aI21
aI22
aI23
aI22
aI21
aI22
aI21
aI22
aI23
aI24
aI25
aI24
aI25
aI26
aI27
aI26
aI27
aI26
aI27
aI26
aI27
aI26
aI25
aI26
aI27
aI26
aI27
aI26
aI27
aI26
aI25
aI26
aI25
aI24
aI23
aI24
aI25
aI26
aI25
aI24
a.