(lp0
I-1
aI-2
aI-3
aI-2
aI-1
aI0
aI-1
aI-2
aI-1
aI0
aI1
aI2
aI1
aI0
aI1
aI2
aI1
aI0
aI-1
aI0
aI1
aI2
aI1
aI0
aI1
aI2
aI3
aI4
aI3
aI2
aI3
aI4
aI3
aI2
aI1
aI2
aI3
aI4
aI3
aI2
aI1
aI0
aI1
aI2
aI1
aI0
aI-1
aI0
aI1
aI2
aI3
aI2
aI1
aI2
aI3
aI4
aI3
aI2
aI3
aI4
aI14
aI13
aI12
aI13
aI14
aI24
aI25
aI24
aI23
aI24
aI34
aI35
aI36
aI35
aI34
aI35
aI36
aI35
aI34
aI35
aI36
aI35
aI34
aI33
aI34
aI35
aI36
aI35
aI34
aI35
aI36
aI35
aI34
aI33
aI34
aI35
aI34
aI33
aI34
aI35
aI36
aI37
aI36
aI37
aI36
aI35
aI34
aI33
aI34
aI35
aI36
aI35
aI34
aI35
aI36
aI35
aI34
aI35
aI36
aI35
aI34
aI33
aI32
aI31
aI32
aI33
aI32
aI31
aI32
aI33
aI34
aI33
aI32
aI33
aI34
a.