(lp0
I1
aI0
aI-1
aI-2
aI-1
aI0
aI1
aI0
aI-1
aI-2
aI-3
aI-2
aI-1
aI0
aI-1
aI-2
aI-3
aI-4
aI-3
aI-2
aI-3
aI-4
aI-3
aI-2
aI8
aI9
aI10
aI11
aI10
aI20
aI21
aI22
aI21
aI20
aI19
aI18
aI19
aI20
aI19
aI18
aI17
aI18
aI19
aI18
aI17
aI18
aI17
aI16
aI17
aI18
aI19
aI20
aI30
aI29
aI28
aI27
aI28
aI29
aI28
aI38
aI39
aI38
aI37
aI38
aI39
aI38
aI37
aI38
aI39
aI40
aI41
aI40
aI50
aI51
aI50
aI49
aI50
aI51
aI52
aI51
aI50
aI49
aI50
aI51
aI50
aI49
aI48
aI58
aI59
aI60
aI59
aI58
aI57
aI56
aI55
aI56
aI57
aI56
aI55
aI56
aI57
aI56
aI55
aI56
aI57
aI56
aI55
aI56
aI57
aI58
aI57
aI56
aI57
aI58
aI59
aI60
aI59
aI58
aI59
aI60
a.