(lp0
I-1
aI-2
aI-1
aI0
aI10
aI11
aI12
aI13
aI12
aI11
aI12
aI13
aI14
aI15
aI14
aI13
aI14
aI15
aI14
aI24
aI25
aI24
aI23
aI22
aI23
aI24
aI23
aI22
aI23
aI24
aI23
aI22
aI21
aI22
aI23
aI22
aI21
aI20
aI21
aI22
aI23
aI22
aI21
aI22
aI23
aI24
aI25
aI24
aI23
aI24
aI25
aI26
aI27
aI26
aI25
aI26
aI36
aI35
aI34
aI33
aI34
aI35
aI34
aI33
aI32
aI31
aI30
aI29
aI30
aI31
aI30
aI29
aI30
aI29
aI28
aI27
aI28
aI29
aI30
aI40
aI39
aI38
aI37
aI36
aI37
aI38
aI48
aI49
aI50
aI49
aI48
aI49
aI50
aI49
aI48
aI58
aI57
aI56
aI55
aI54
aI55
aI56
aI55
aI54
aI55
aI56
aI57
aI56
aI55
aI56
aI57
aI58
a.