(lp0
I1
aI0
aI-1
aI-2
aI-3
aI-2
aI-1
aI0
aI-1
aI-2
aI-3
aI-4
aI-3
aI-2
aI-3
aI-4
aI-5
aI-6
aI-7
aI-6
aI-5
aI-6
aI-7
aI-6
aI4
aI3
aI2
aI3
aI4
aI14
aI13
aI12
aI11
aI10
aI9
aI10
aI11
aI10
aI9
aI8
aI9
aI10
aI9
aI8
aI7
aI8
aI9
aI10
aI9
aI8
aI9
aI10
aI11
aI12
aI11
aI10
aI11
aI12
aI22
aI23
aI24
aI23
aI22
aI21
aI20
aI21
aI22
aI32
aI33
aI32
aI31
aI32
aI33
aI34
aI33
aI32
aI31
aI32
aI33
aI32
aI42
aI43
aI44
aI43
aI42
aI41
aI42
aI43
aI42
aI41
aI40
aI41
aI42
aI41
aI40
aI41
aI42
aI43
aI42
aI41
aI40
aI39
aI40
aI41
aI40
aI39
aI40
aI50
aI51
aI52
aI51
aI50
aI49
aI50
aI51
aI52
aI51
aI50
aI49
aI50
aI51
aI50
aI49
aI48
a.