(lp0
I-1
aI-2
aI-1
aI0
aI1
aI0
aI10
aI11
aI10
aI9
aI8
aI9
aI10
aI9
aI8
aI9
aI10
aI11
aI10
aI9
aI10
aI11
aI10
aI11
aI12
aI13
aI12
aI11
aI10
aI9
aI10
aI11
aI10
aI9
aI8
aI7
aI8
aI9
aI8
aI9
aI10
aI11
aI10
aI9
aI10
aI20
aI21
aI20
aI19
aI20
aI21
aI20
aI30
aI29
aI28
aI27
aI28
aI29
aI30
aI29
aI28
aI29
aI30
aI31
aI30
aI29
aI30
aI31
aI32
aI33
aI32
aI31
aI30
aI31
aI32
aI42
aI43
aI44
aI43
aI42
aI41
aI40
aI41
aI42
aI43
aI42
aI41
aI42
aI43
aI44
aI43
aI42
aI43
aI44
aI43
aI42
aI43
aI44
aI54
aI55
aI54
aI53
aI52
aI53
aI54
aI55
aI54
aI53
aI54
aI55
aI54
aI53
aI54
aI55
aI54
a.