(lp0
I-1
aI-2
aI-3
aI-2
aI-1
aI-2
aI-3
aI-4
aI-5
aI-4
aI-3
aI-4
aI-5
aI-4
aI-3
aI-4
aI-5
aI-6
aI-7
aI-6
aI-5
aI-6
aI-7
aI-8
aI-7
aI-6
aI-5
aI-4
aI-5
aI-6
aI-5
aI-4
aI-3
aI-4
aI-5
aI-4
aI-3
aI-2
aI-3
aI-4
aI-3
aI-2
aI-3
aI-4
aI6
aI5
aI4
aI3
aI2
aI3
aI4
aI3
aI2
aI3
aI4
aI5
aI6
aI7
aI8
aI7
aI6
aI7
aI6
aI5
aI6
aI7
aI8
aI7
aI6
aI7
aI8
aI9
aI8
aI18
aI17
aI16
aI15
aI16
aI17
aI16
aI15
aI14
aI15
aI16
aI17
aI18
aI28
aI29
aI30
aI31
aI30
aI29
aI28
aI29
aI30
aI29
aI28
aI27
aI28
aI29
aI28
aI27
aI28
aI29
aI30
aI29
aI28
aI29
aI30
aI29
aI28
aI29
aI30
aI40
aI39
aI38
aI39
aI40
aI41
aI40
aI39
aI38
aI39
aI40
aI41
aI40
aI39
aI38
aI39
aI40
aI41
aI42
aI41
aI40
aI39
aI38
aI39
aI40
aI39
aI38
aI39
aI40
aI39
aI38
aI39
aI40
a.